; Function Attrs: mustprogress nounwind uwtable
define void @_ZN2cv10AsyncArrayD2Ev(ptr noundef nonnull align 8 captures(none) dereferenceable(8) %0) unnamed_addr #4 align 2 {
  %2 = load ptr, ptr %0, align 8, !tbaa !3
  store ptr null, ptr %0, align 8, !tbaa !3
  %.not.i = icmp eq ptr %2, null
  br i1 %.not.i, label %_ZN2cv10AsyncArray7releaseEv.exit, label %3

3:                                                ; preds = %1
  %4 = getelementptr inbounds nuw i8, ptr %2, i64 4
  %5 = atomicrmw add ptr %4, i32 -1 acq_rel, align 4
  %6 = atomicrmw add ptr %2, i32 -1 acq_rel, align 8
  %.not.i.i = icmp eq i32 %6, 1
  br i1 %.not.i.i, label %7, label %_ZN2cv10AsyncArray7releaseEv.exit

7:                                                ; preds = %3
  tail call void @_ZN2cv10AsyncArray4ImplD2Ev(ptr noundef nonnull align 8 dereferenceable(314) %2) #23
  tail call void @_ZdlPv(ptr noundef nonnull align 8 dereferenceable(314) %2) #24
  br label %_ZN2cv10AsyncArray7releaseEv.exit

_ZN2cv10AsyncArray7releaseEv.exit:                ; preds = %1, %3, %7
  ret void
}